target datalayout = "e-m:e-p270:32:32-p271:32:32-p272:64:64-i64:64-i128:128-f80:128-n8:16:32:64-S128"
target triple = "x86_64-pc-linux-gnu"

%struct.rb_data_type_struct = type { ptr, %struct.anon, ptr, ptr, i64 }
%struct.anon = type { ptr, ptr, ptr, ptr, [1 x ptr] }

@ossl_bn_type = internal constant %struct.rb_data_type_struct { ptr @.str.62, %struct.anon { ptr null, ptr @ossl_bn_free, ptr null, ptr null, [1 x ptr] zeroinitializer }, ptr null, ptr null, i64 289 }, align 8
@rb_eRuntimeError = external global i64, align 8
@.str = private unnamed_addr constant [23 x i8] c"BN wasn't initialized!\00", align 1

; Function Attrs: nounwind sspstrong uwtable
define internal i64 @ossl_bn_is_zero(i64 noundef %0) #0 {
  %2 = alloca i64, align 8
  %3 = alloca i64, align 8
  %4 = alloca ptr, align 8
  %5 = alloca i32, align 4
  store i64 %0, ptr %3, align 8, !tbaa !11
  call void @llvm.lifetime.start.p0(i64 8, ptr %4) #20
  br label %6

6:                                                ; preds = %1
  %7 = load i64, ptr %3, align 8, !tbaa !11
  %8 = call ptr @rb_check_typeddata(i64 noundef %7, ptr noundef @ossl_bn_type)
  store ptr %8, ptr %4, align 8, !tbaa !6
  %9 = load ptr, ptr %4, align 8, !tbaa !6
  %10 = icmp ne ptr %9, null
  br i1 %10, label %13, label %11

11:                                               ; preds = %6
  %12 = load i64, ptr @rb_eRuntimeError, align 8, !tbaa !11
  call void (i64, ptr, ...) @ossl_raise(i64 noundef %12, ptr noundef @.str) #21
  unreachable

13:                                               ; preds = %6
  br label %14

14:                                               ; preds = %13
  br label %15

15:                                               ; preds = %14
  %16 = load ptr, ptr %4, align 8, !tbaa !6
  %17 = call i32 @BN_is_zero(ptr noundef %16)
  %18 = icmp ne i32 %17, 0
  br i1 %18, label %19, label %20

19:                                               ; preds = %15
  store i64 20, ptr %2, align 8
  store i32 1, ptr %5, align 4
  br label %21

20:                                               ; preds = %15
  store i64 0, ptr %2, align 8
  store i32 1, ptr %5, align 4
  br label %21

21:                                               ; preds = %20, %19
  call void @llvm.lifetime.end.p0(i64 8, ptr %4) #20
  %22 = load i64, ptr %2, align 8
  ret i64 %22
}